target datalayout = "e-m:e-p270:32:32-p271:32:32-p272:64:64-i64:64-i128:128-f80:128-n8:16:32:64-S128"
target triple = "x86_64-pc-linux-gnu"

%struct._zend_php_scanner_globals = type { ptr, ptr, i32, ptr, ptr, ptr, ptr, ptr, i32, %struct._zend_stack, %struct._zend_ptr_stack, %struct._zend_stack, i8, i32, i8, ptr, i64, ptr, i64, ptr, ptr, ptr, i32, ptr, ptr }
%struct._zend_ptr_stack = type { i32, i32, ptr, ptr, i8 }
%struct._zend_stack = type { i32, i32, i32, ptr }
%struct._zval_struct = type { %union._zend_value, %union.anon, %union.anon.2 }
%union._zend_value = type { i64 }
%union.anon = type { i32 }
%union.anon.2 = type { i32 }
%struct.anon.0 = type { i8, i8, %union.anon.1 }
%union.anon.1 = type { i16 }

@zend_write = external global ptr, align 8
@language_scanner_globals = external global %struct._zend_php_scanner_globals, align 8
@.str.8 = private unnamed_addr constant [2 x i8] c" \00", align 1
@.str.9 = private unnamed_addr constant [2 x i8] c"\0A\00", align 1

; Function Attrs: nounwind uwtable
define void @zend_strip() #0 {
  %1 = alloca ptr, align 8
  %2 = alloca ptr, align 8
  %3 = alloca ptr, align 8
  %4 = alloca ptr, align 8
  %5 = alloca %struct._zval_struct, align 8
  %6 = alloca i32, align 4
  %7 = alloca i32, align 4
  store i32 0, ptr %7, align 4
  br label %8

8:                                                ; preds = %91, %43, %23, %0
  %9 = call i32 @lex_scan(ptr noundef %5, ptr noundef null)
  store i32 %9, ptr %6, align 4
  %10 = icmp ne i32 %9, 0
  br i1 %10, label %11, label %92

11:                                               ; preds = %8
  %12 = load i32, ptr %6, align 4
  switch i32 %12, label %44 [
    i32 392, label %13
    i32 387, label %20
    i32 388, label %20
    i32 394, label %24
  ]

13:                                               ; preds = %11
  %14 = load i32, ptr %7, align 4
  %15 = icmp ne i32 %14, 0
  br i1 %15, label %19, label %16

16:                                               ; preds = %13
  %17 = load ptr, ptr @zend_write, align 8
  %18 = call i64 %17(ptr noundef @.str.8, i64 noundef 1)
  store i32 1, ptr %7, align 4
  br label %19

19:                                               ; preds = %16, %13
  br label %20

20:                                               ; preds = %19, %11, %11
  br label %21

21:                                               ; preds = %20
  %22 = getelementptr inbounds %struct._zval_struct, ptr %5, i32 0, i32 1
  store i32 0, ptr %22, align 8
  br label %23

23:                                               ; preds = %21
  br label %8

24:                                               ; preds = %11
  %25 = load ptr, ptr @zend_write, align 8
  %26 = load ptr, ptr getelementptr inbounds (%struct._zend_php_scanner_globals, ptr @language_scanner_globals, i32 0, i32 4), align 8
  %27 = load i32, ptr getelementptr inbounds (%struct._zend_php_scanner_globals, ptr @language_scanner_globals, i32 0, i32 2), align 8
  %28 = zext i32 %27 to i64
  %29 = call i64 %25(ptr noundef %26, i64 noundef %28)
  %30 = call i32 @lex_scan(ptr noundef %5, ptr noundef null)
  %31 = icmp ne i32 %30, 392
  br i1 %31, label %32, label %38

32:                                               ; preds = %24
  %33 = load ptr, ptr @zend_write, align 8
  %34 = load ptr, ptr getelementptr inbounds (%struct._zend_php_scanner_globals, ptr @language_scanner_globals, i32 0, i32 4), align 8
  %35 = load i32, ptr getelementptr inbounds (%struct._zend_php_scanner_globals, ptr @language_scanner_globals, i32 0, i32 2), align 8
  %36 = zext i32 %35 to i64
  %37 = call i64 %33(ptr noundef %34, i64 noundef %36)
  br label %38

38:                                               ; preds = %32, %24
  %39 = load ptr, ptr @zend_write, align 8
  %40 = call i64 %39(ptr noundef @.str.9, i64 noundef 1)
  store i32 1, ptr %7, align 4
  br label %41

41:                                               ; preds = %38
  %42 = getelementptr inbounds %struct._zval_struct, ptr %5, i32 0, i32 1
  store i32 0, ptr %42, align 8
  br label %43

43:                                               ; preds = %41
  br label %8

44:                                               ; preds = %11
  %45 = load ptr, ptr @zend_write, align 8
  %46 = load ptr, ptr getelementptr inbounds (%struct._zend_php_scanner_globals, ptr @language_scanner_globals, i32 0, i32 4), align 8
  %47 = load i32, ptr getelementptr inbounds (%struct._zend_php_scanner_globals, ptr @language_scanner_globals, i32 0, i32 2), align 8
  %48 = zext i32 %47 to i64
  %49 = call i64 %45(ptr noundef %46, i64 noundef %48)
  br label %50

50:                                               ; preds = %44
  store ptr %5, ptr %4, align 8
  %51 = load ptr, ptr %4, align 8
  %52 = getelementptr inbounds %struct._zval_struct, ptr %51, i32 0, i32 1
  %53 = load i8, ptr %52, align 8
  %54 = zext i8 %53 to i32
  %55 = icmp eq i32 %54, 6
  br i1 %55, label %56, label %88

56:                                               ; preds = %50
  %57 = load i32, ptr %6, align 4
  switch i32 %57, label %59 [
    i32 389, label %58
    i32 390, label %58
    i32 391, label %58
    i32 392, label %58
    i32 387, label %58
    i32 388, label %58
  ]

58:                                               ; preds = %56, %56, %56, %56, %56, %56
  br label %87

59:                                               ; preds = %56
  store ptr %5, ptr %3, align 8
  %60 = load ptr, ptr %3, align 8
  %61 = getelementptr inbounds %struct._zval_struct, ptr %60, i32 0, i32 1
  %62 = getelementptr inbounds %struct.anon.0, ptr %61, i32 0, i32 1
  %63 = load i8, ptr %62, align 1
  %64 = zext i8 %63 to i32
  %65 = icmp ne i32 %64, 0
  br i1 %65, label %66, label %86

66:                                               ; preds = %59
  %67 = load ptr, ptr %3, align 8
  store ptr %67, ptr %2, align 8
  %68 = load ptr, ptr %2, align 8
  %69 = getelementptr inbounds %struct._zval_struct, ptr %68, i32 0, i32 1
  %70 = getelementptr inbounds %struct.anon.0, ptr %69, i32 0, i32 1
  %71 = load i8, ptr %70, align 1
  %72 = zext i8 %71 to i32
  %73 = icmp ne i32 %72, 0
  call void @llvm.assume(i1 %73)
  %74 = load ptr, ptr %2, align 8
  %75 = load ptr, ptr %74, align 8
  store ptr %75, ptr %1, align 8
  %76 = load ptr, ptr %1, align 8
  %77 = load i32, ptr %76, align 4
  %78 = icmp ugt i32 %77, 0
  call void @llvm.assume(i1 %78)
  %79 = load ptr, ptr %1, align 8
  %80 = load i32, ptr %79, align 4
  %81 = add i32 %80, -1
  store i32 %81, ptr %79, align 4
  %82 = icmp ne i32 %81, 0
  br i1 %82, label %86, label %83

83:                                               ; preds = %66
  %84 = load ptr, ptr %3, align 8
  %85 = load ptr, ptr %84, align 8
  call void @_efree(ptr noundef %85) #3
  br label %86

86:                                               ; preds = %83, %66, %59
  br label %87

87:                                               ; preds = %86, %58
  br label %88

88:                                               ; preds = %87, %50
  store i32 0, ptr %7, align 4
  br label %89

89:                                               ; preds = %88
  %90 = getelementptr inbounds %struct._zval_struct, ptr %5, i32 0, i32 1
  store i32 0, ptr %90, align 8
  br label %91

91:                                               ; preds = %89
  br label %8

92:                                               ; preds = %8
  call void @zend_clear_exception()
  ret void
}