; Function Attrs: nounwind uwtable
define void @zend_strip() local_unnamed_addr #0 {
  %1 = alloca %struct._zval_struct, align 8
  %2 = getelementptr inbounds i8, ptr %1, i64 8
  %3 = getelementptr inbounds i8, ptr %1, i64 9
  br label %4

4:                                                ; preds = %.backedge, %0
  %.0 = phi i32 [ 0, %0 ], [ %.0.be, %.backedge ]
  %5 = call i32 @lex_scan(ptr noundef nonnull %1, ptr noundef null) #4
  switch i32 %5, label %26 [
    i32 0, label %42
    i32 392, label %6
    i32 387, label %.backedge
    i32 388, label %.backedge
    i32 394, label %10
  ]

6:                                                ; preds = %4
  %.not12 = icmp eq i32 %.0, 0
  br i1 %.not12, label %7, label %.backedge

7:                                                ; preds = %6
  %8 = load ptr, ptr @zend_write, align 8
  %9 = call i64 %8(ptr noundef nonnull @.str.8, i64 noundef 1) #4
  br label %.backedge

.backedge:                                        ; preds = %6, %7, %4, %4, %26, %35, %40, %23
  %.0.be = phi i32 [ 1, %23 ], [ 0, %40 ], [ 0, %35 ], [ 0, %26 ], [ 1, %6 ], [ 1, %7 ], [ %.0, %4 ], [ %.0, %4 ]
  store i32 0, ptr %2, align 8
  br label %4

10:                                               ; preds = %4
  %11 = load ptr, ptr @zend_write, align 8
  %12 = load ptr, ptr getelementptr inbounds (%struct._zend_php_scanner_globals, ptr @language_scanner_globals, i64 0, i32 4), align 8
  %13 = load i32, ptr getelementptr inbounds (%struct._zend_php_scanner_globals, ptr @language_scanner_globals, i64 0, i32 2), align 8
  %14 = zext i32 %13 to i64
  %15 = call i64 %11(ptr noundef %12, i64 noundef %14) #4
  %16 = call i32 @lex_scan(ptr noundef nonnull %1, ptr noundef null) #4
  %.not11 = icmp eq i32 %16, 392
  br i1 %.not11, label %23, label %17

17:                                               ; preds = %10
  %18 = load ptr, ptr @zend_write, align 8
  %19 = load ptr, ptr getelementptr inbounds (%struct._zend_php_scanner_globals, ptr @language_scanner_globals, i64 0, i32 4), align 8
  %20 = load i32, ptr getelementptr inbounds (%struct._zend_php_scanner_globals, ptr @language_scanner_globals, i64 0, i32 2), align 8
  %21 = zext i32 %20 to i64
  %22 = call i64 %18(ptr noundef %19, i64 noundef %21) #4
  br label %23

23:                                               ; preds = %17, %10
  %24 = load ptr, ptr @zend_write, align 8
  %25 = call i64 %24(ptr noundef nonnull @.str.9, i64 noundef 1) #4
  br label %.backedge

26:                                               ; preds = %4
  %27 = load ptr, ptr @zend_write, align 8
  %28 = load ptr, ptr getelementptr inbounds (%struct._zend_php_scanner_globals, ptr @language_scanner_globals, i64 0, i32 4), align 8
  %29 = load i32, ptr getelementptr inbounds (%struct._zend_php_scanner_globals, ptr @language_scanner_globals, i64 0, i32 2), align 8
  %30 = zext i32 %29 to i64
  %31 = call i64 %27(ptr noundef %28, i64 noundef %30) #4
  %32 = load i8, ptr %2, align 8
  %33 = icmp ne i8 %32, 6
  %.off = add i32 %5, -387
  %switch = icmp ult i32 %.off, 6
  %or.cond = or i1 %switch, %33
  %34 = load i8, ptr %3, align 1
  %.not13 = icmp eq i8 %34, 0
  %or.cond16 = select i1 %or.cond, i1 true, i1 %.not13
  br i1 %or.cond16, label %.backedge, label %35

35:                                               ; preds = %26
  %36 = load ptr, ptr %1, align 8
  %37 = load i32, ptr %36, align 4
  %38 = icmp ne i32 %37, 0
  call void @llvm.assume(i1 %38)
  %39 = add i32 %37, -1
  store i32 %39, ptr %36, align 4
  %.not14 = icmp eq i32 %39, 0
  br i1 %.not14, label %40, label %.backedge

40:                                               ; preds = %35
  %41 = load ptr, ptr %1, align 8
  call void @_efree(ptr noundef %41) #4
  br label %.backedge

42:                                               ; preds = %4
  call void @zend_clear_exception() #4
  ret void
}